target datalayout = "e-m:e-p270:32:32-p271:32:32-p272:64:64-i64:64-i128:128-f80:128-n8:16:32:64-S128"
target triple = "x86_64-pc-linux-gnu"

%"struct.ceres::Solver::Options" = type { i32, i32, i32, i32, i32, i8, i32, double, double, double, double, i32, i32, double, double, i32, i32, i8, i32, i32, double, i32, double, double, double, double, double, double, i32, double, double, double, i32, i32, i32, %"class.std::unordered_set", i32, i32, i32, %"class.std::shared_ptr", i8, i8, i8, i32, i32, i32, i32, i8, double, double, i8, i8, %"class.std::shared_ptr", double, i32, i8, %"class.std::vector", %"class.std::__cxx11::basic_string", i32, i8, double, double, i8, %"class.std::vector.9" }
%"class.std::unordered_set" = type { %"class.std::_Hashtable" }
%"class.std::_Hashtable" = type { ptr, i64, %"struct.std::__detail::_Hash_node_base", i64, %"struct.std::__detail::_Prime_rehash_policy", ptr }
%"struct.std::__detail::_Hash_node_base" = type { ptr }
%"struct.std::__detail::_Prime_rehash_policy" = type { float, i64 }
%"class.std::shared_ptr" = type { %"class.std::__shared_ptr" }
%"class.std::__shared_ptr" = type { ptr, %"class.std::__shared_count" }
%"class.std::__shared_count" = type { ptr }
%"class.std::vector" = type { %"struct.std::_Vector_base" }
%"struct.std::_Vector_base" = type { %"struct.std::_Vector_base<int, std::allocator<int>>::_Vector_impl" }
%"struct.std::_Vector_base<int, std::allocator<int>>::_Vector_impl" = type { %"struct.std::_Vector_base<int, std::allocator<int>>::_Vector_impl_data" }
%"struct.std::_Vector_base<int, std::allocator<int>>::_Vector_impl_data" = type { ptr, ptr, ptr }
%"class.std::__cxx11::basic_string" = type { %"struct.std::__cxx11::basic_string<char>::_Alloc_hider", i64, %union.anon }
%"struct.std::__cxx11::basic_string<char>::_Alloc_hider" = type { ptr }
%union.anon = type { i64, [8 x i8] }
%"class.std::vector.9" = type { %"struct.std::_Vector_base.10" }
%"struct.std::_Vector_base.10" = type { %"struct.std::_Vector_base<ceres::IterationCallback *, std::allocator<ceres::IterationCallback *>>::_Vector_impl" }
%"struct.std::_Vector_base<ceres::IterationCallback *, std::allocator<ceres::IterationCallback *>>::_Vector_impl" = type { %"struct.std::_Vector_base<ceres::IterationCallback *, std::allocator<ceres::IterationCallback *>>::_Vector_impl_data" }
%"struct.std::_Vector_base<ceres::IterationCallback *, std::allocator<ceres::IterationCallback *>>::_Vector_impl_data" = type { ptr, ptr, ptr }
%"struct.ceres::GradientProblemSolver::Options" = type { i32, i32, i32, i32, i8, i32, double, double, double, double, i32, i32, double, double, i32, double, double, double, double, i32, i8, i8, %"class.std::vector.9" }

; Function Attrs: mustprogress uwtable
define internal void @_ZN5ceres12_GLOBAL__N_143GradientProblemSolverOptionsToSolverOptionsERKNS_21GradientProblemSolver7OptionsE(ptr dead_on_unwind noalias writable sret(%"struct.ceres::Solver::Options") align 8 %0, ptr noundef nonnull align 8 dereferenceable(152) %1) #2 personality ptr @__gxx_personality_v0 {
  %3 = alloca ptr, align 8
  %4 = alloca ptr, align 8
  %5 = alloca i1, align 1
  %6 = alloca ptr, align 8
  %7 = alloca i32, align 4
  store ptr %0, ptr %3, align 8
  store ptr %1, ptr %4, align 8
  store i1 false, ptr %5, align 1
  call void @_ZN5ceres6Solver7OptionsC2Ev(ptr noundef nonnull align 8 dereferenceable(504) %0)
  %8 = getelementptr inbounds %"struct.ceres::Solver::Options", ptr %0, i32 0, i32 0
  store i32 0, ptr %8, align 8
  %9 = load ptr, ptr %4, align 8
  %10 = getelementptr inbounds %"struct.ceres::GradientProblemSolver::Options", ptr %9, i32 0, i32 0
  %11 = load i32, ptr %10, align 8
  %12 = getelementptr inbounds %"struct.ceres::Solver::Options", ptr %0, i32 0, i32 1
  store i32 %11, ptr %12, align 4
  %13 = load ptr, ptr %4, align 8
  %14 = getelementptr inbounds %"struct.ceres::GradientProblemSolver::Options", ptr %13, i32 0, i32 1
  %15 = load i32, ptr %14, align 4
  %16 = getelementptr inbounds %"struct.ceres::Solver::Options", ptr %0, i32 0, i32 2
  store i32 %15, ptr %16, align 8
  %17 = load ptr, ptr %4, align 8
  %18 = getelementptr inbounds %"struct.ceres::GradientProblemSolver::Options", ptr %17, i32 0, i32 2
  %19 = load i32, ptr %18, align 8
  %20 = getelementptr inbounds %"struct.ceres::Solver::Options", ptr %0, i32 0, i32 3
  store i32 %19, ptr %20, align 4
  %21 = load ptr, ptr %4, align 8
  %22 = getelementptr inbounds %"struct.ceres::GradientProblemSolver::Options", ptr %21, i32 0, i32 3
  %23 = load i32, ptr %22, align 4
  %24 = getelementptr inbounds %"struct.ceres::Solver::Options", ptr %0, i32 0, i32 4
  store i32 %23, ptr %24, align 8
  %25 = load ptr, ptr %4, align 8
  %26 = getelementptr inbounds %"struct.ceres::GradientProblemSolver::Options", ptr %25, i32 0, i32 4
  %27 = load i8, ptr %26, align 8
  %28 = trunc i8 %27 to i1
  %29 = getelementptr inbounds %"struct.ceres::Solver::Options", ptr %0, i32 0, i32 5
  %30 = zext i1 %28 to i8
  store i8 %30, ptr %29, align 4
  %31 = load ptr, ptr %4, align 8
  %32 = getelementptr inbounds %"struct.ceres::GradientProblemSolver::Options", ptr %31, i32 0, i32 5
  %33 = load i32, ptr %32, align 4
  %34 = getelementptr inbounds %"struct.ceres::Solver::Options", ptr %0, i32 0, i32 6
  store i32 %33, ptr %34, align 8
  %35 = load ptr, ptr %4, align 8
  %36 = getelementptr inbounds %"struct.ceres::GradientProblemSolver::Options", ptr %35, i32 0, i32 6
  %37 = load double, ptr %36, align 8
  %38 = getelementptr inbounds %"struct.ceres::Solver::Options", ptr %0, i32 0, i32 7
  store double %37, ptr %38, align 8
  %39 = load ptr, ptr %4, align 8
  %40 = getelementptr inbounds %"struct.ceres::GradientProblemSolver::Options", ptr %39, i32 0, i32 7
  %41 = load double, ptr %40, align 8
  %42 = getelementptr inbounds %"struct.ceres::Solver::Options", ptr %0, i32 0, i32 8
  store double %41, ptr %42, align 8
  %43 = load ptr, ptr %4, align 8
  %44 = getelementptr inbounds %"struct.ceres::GradientProblemSolver::Options", ptr %43, i32 0, i32 8
  %45 = load double, ptr %44, align 8
  %46 = getelementptr inbounds %"struct.ceres::Solver::Options", ptr %0, i32 0, i32 9
  store double %45, ptr %46, align 8
  %47 = load ptr, ptr %4, align 8
  %48 = getelementptr inbounds %"struct.ceres::GradientProblemSolver::Options", ptr %47, i32 0, i32 9
  %49 = load double, ptr %48, align 8
  %50 = getelementptr inbounds %"struct.ceres::Solver::Options", ptr %0, i32 0, i32 10
  store double %49, ptr %50, align 8
  %51 = load ptr, ptr %4, align 8
  %52 = getelementptr inbounds %"struct.ceres::GradientProblemSolver::Options", ptr %51, i32 0, i32 10
  %53 = load i32, ptr %52, align 8
  %54 = getelementptr inbounds %"struct.ceres::Solver::Options", ptr %0, i32 0, i32 11
  store i32 %53, ptr %54, align 8
  %55 = load ptr, ptr %4, align 8
  %56 = getelementptr inbounds %"struct.ceres::GradientProblemSolver::Options", ptr %55, i32 0, i32 11
  %57 = load i32, ptr %56, align 4
  %58 = getelementptr inbounds %"struct.ceres::Solver::Options", ptr %0, i32 0, i32 12
  store i32 %57, ptr %58, align 4
  %59 = load ptr, ptr %4, align 8
  %60 = getelementptr inbounds %"struct.ceres::GradientProblemSolver::Options", ptr %59, i32 0, i32 12
  %61 = load double, ptr %60, align 8
  %62 = getelementptr inbounds %"struct.ceres::Solver::Options", ptr %0, i32 0, i32 13
  store double %61, ptr %62, align 8
  %63 = load ptr, ptr %4, align 8
  %64 = getelementptr inbounds %"struct.ceres::GradientProblemSolver::Options", ptr %63, i32 0, i32 13
  %65 = load double, ptr %64, align 8
  %66 = getelementptr inbounds %"struct.ceres::Solver::Options", ptr %0, i32 0, i32 14
  store double %65, ptr %66, align 8
  %67 = load ptr, ptr %4, align 8
  %68 = getelementptr inbounds %"struct.ceres::GradientProblemSolver::Options", ptr %67, i32 0, i32 14
  %69 = load i32, ptr %68, align 8
  %70 = getelementptr inbounds %"struct.ceres::Solver::Options", ptr %0, i32 0, i32 19
  store i32 %69, ptr %70, align 8
  %71 = load ptr, ptr %4, align 8
  %72 = getelementptr inbounds %"struct.ceres::GradientProblemSolver::Options", ptr %71, i32 0, i32 15
  %73 = load double, ptr %72, align 8
  %74 = getelementptr inbounds %"struct.ceres::Solver::Options", ptr %0, i32 0, i32 20
  store double %73, ptr %74, align 8
  %75 = load ptr, ptr %4, align 8
  %76 = getelementptr inbounds %"struct.ceres::GradientProblemSolver::Options", ptr %75, i32 0, i32 18
  %77 = load double, ptr %76, align 8
  %78 = getelementptr inbounds %"struct.ceres::Solver::Options", ptr %0, i32 0, i32 31
  store double %77, ptr %78, align 8
  %79 = load ptr, ptr %4, align 8
  %80 = getelementptr inbounds %"struct.ceres::GradientProblemSolver::Options", ptr %79, i32 0, i32 16
  %81 = load double, ptr %80, align 8
  %82 = getelementptr inbounds %"struct.ceres::Solver::Options", ptr %0, i32 0, i32 29
  store double %81, ptr %82, align 8
  %83 = load ptr, ptr %4, align 8
  %84 = getelementptr inbounds %"struct.ceres::GradientProblemSolver::Options", ptr %83, i32 0, i32 17
  %85 = load double, ptr %84, align 8
  %86 = getelementptr inbounds %"struct.ceres::Solver::Options", ptr %0, i32 0, i32 30
  store double %85, ptr %86, align 8
  %87 = load ptr, ptr %4, align 8
  %88 = getelementptr inbounds %"struct.ceres::GradientProblemSolver::Options", ptr %87, i32 0, i32 19
  %89 = load i32, ptr %88, align 8
  %90 = getelementptr inbounds %"struct.ceres::Solver::Options", ptr %0, i32 0, i32 54
  store i32 %89, ptr %90, align 8
  %91 = load ptr, ptr %4, align 8
  %92 = getelementptr inbounds %"struct.ceres::GradientProblemSolver::Options", ptr %91, i32 0, i32 20
  %93 = load i8, ptr %92, align 4
  %94 = trunc i8 %93 to i1
  %95 = getelementptr inbounds %"struct.ceres::Solver::Options", ptr %0, i32 0, i32 55
  %96 = zext i1 %94 to i8
  store i8 %96, ptr %95, align 4
  %97 = load ptr, ptr %4, align 8
  %98 = getelementptr inbounds %"struct.ceres::GradientProblemSolver::Options", ptr %97, i32 0, i32 22
  %99 = getelementptr inbounds %"struct.ceres::Solver::Options", ptr %0, i32 0, i32 63
  %100 = invoke noundef nonnull align 8 dereferenceable(24) ptr @_ZNSt6vectorIPN5ceres17IterationCallbackESaIS2_EEaSERKS4_(ptr noundef nonnull align 8 dereferenceable(24) %99, ptr noundef nonnull align 8 dereferenceable(24) %98)
          to label %101 unwind label %103

101:                                              ; preds = %2
  store i1 true, ptr %5, align 1
  %102 = load i1, ptr %5, align 1
  br i1 %102, label %108, label %107

103:                                              ; preds = %2
  %104 = landingpad { ptr, i32 }
          cleanup
  %105 = extractvalue { ptr, i32 } %104, 0
  store ptr %105, ptr %6, align 8
  %106 = extractvalue { ptr, i32 } %104, 1
  store i32 %106, ptr %7, align 4
  call void @_ZN5ceres6Solver7OptionsD2Ev(ptr noundef nonnull align 8 dereferenceable(504) %0) #16
  br label %109

107:                                              ; preds = %101
  call void @_ZN5ceres6Solver7OptionsD2Ev(ptr noundef nonnull align 8 dereferenceable(504) %0) #16
  br label %108

108:                                              ; preds = %107, %101
  ret void

109:                                              ; preds = %103
  %110 = load ptr, ptr %6, align 8
  %111 = load i32, ptr %7, align 4
  %112 = insertvalue { ptr, i32 } poison, ptr %110, 0
  %113 = insertvalue { ptr, i32 } %112, i32 %111, 1
  resume { ptr, i32 } %113
}