; Function Attrs: mustprogress uwtable
define internal fastcc void @_ZN5ceres12_GLOBAL__N_143GradientProblemSolverOptionsToSolverOptionsERKNS_21GradientProblemSolver7OptionsE(ptr dead_on_unwind noalias nonnull writable align 8 %0, ptr noundef nonnull align 8 dereferenceable(152) %1) unnamed_addr #0 personality ptr @__gxx_personality_v0 {
  tail call void @_ZN5ceres6Solver7OptionsC2Ev(ptr noundef nonnull align 8 dereferenceable(504) %0)
  store i32 0, ptr %0, align 8
  %3 = getelementptr inbounds i8, ptr %0, i64 4
  %4 = load <4 x i32>, ptr %1, align 8
  store <4 x i32> %4, ptr %3, align 4
  %5 = getelementptr inbounds i8, ptr %1, i64 16
  %6 = load i8, ptr %5, align 8
  %7 = and i8 %6, 1
  %8 = getelementptr inbounds i8, ptr %0, i64 20
  store i8 %7, ptr %8, align 4
  %9 = getelementptr inbounds i8, ptr %1, i64 20
  %10 = load i32, ptr %9, align 4
  %11 = getelementptr inbounds i8, ptr %0, i64 24
  store i32 %10, ptr %11, align 8
  %12 = getelementptr inbounds i8, ptr %1, i64 24
  %13 = getelementptr inbounds i8, ptr %0, i64 32
  %14 = load <2 x double>, ptr %12, align 8
  store <2 x double> %14, ptr %13, align 8
  %15 = getelementptr inbounds i8, ptr %1, i64 40
  %16 = getelementptr inbounds i8, ptr %0, i64 48
  %17 = load <2 x double>, ptr %15, align 8
  store <2 x double> %17, ptr %16, align 8
  %18 = getelementptr inbounds i8, ptr %1, i64 56
  %19 = getelementptr inbounds i8, ptr %0, i64 64
  %20 = load <2 x i32>, ptr %18, align 8
  store <2 x i32> %20, ptr %19, align 8
  %21 = getelementptr inbounds i8, ptr %1, i64 64
  %22 = getelementptr inbounds i8, ptr %0, i64 72
  %23 = load <2 x double>, ptr %21, align 8
  store <2 x double> %23, ptr %22, align 8
  %24 = getelementptr inbounds i8, ptr %1, i64 80
  %25 = load i32, ptr %24, align 8
  %26 = getelementptr inbounds i8, ptr %0, i64 104
  store i32 %25, ptr %26, align 8
  %27 = getelementptr inbounds i8, ptr %1, i64 88
  %28 = load double, ptr %27, align 8
  %29 = getelementptr inbounds i8, ptr %0, i64 112
  store double %28, ptr %29, align 8
  %30 = getelementptr inbounds i8, ptr %1, i64 112
  %31 = load double, ptr %30, align 8
  %32 = getelementptr inbounds i8, ptr %0, i64 200
  store double %31, ptr %32, align 8
  %33 = getelementptr inbounds i8, ptr %1, i64 96
  %34 = getelementptr inbounds i8, ptr %0, i64 184
  %35 = load <2 x double>, ptr %33, align 8
  store <2 x double> %35, ptr %34, align 8
  %36 = getelementptr inbounds i8, ptr %1, i64 120
  %37 = load i32, ptr %36, align 8
  %38 = getelementptr inbounds i8, ptr %0, i64 384
  store i32 %37, ptr %38, align 8
  %39 = getelementptr inbounds i8, ptr %1, i64 124
  %40 = load i8, ptr %39, align 4
  %41 = and i8 %40, 1
  %42 = getelementptr inbounds i8, ptr %0, i64 388
  store i8 %41, ptr %42, align 4
  %43 = getelementptr inbounds i8, ptr %1, i64 128
  %44 = getelementptr inbounds i8, ptr %0, i64 480
  %45 = invoke noundef nonnull align 8 dereferenceable(24) ptr @_ZNSt6vectorIPN5ceres17IterationCallbackESaIS2_EEaSERKS4_(ptr noundef nonnull align 8 dereferenceable(24) %44, ptr noundef nonnull align 8 dereferenceable(24) %43)
          to label %48 unwind label %46

46:                                               ; preds = %2
  %47 = landingpad { ptr, i32 }
          cleanup
  tail call void @_ZN5ceres6Solver7OptionsD2Ev(ptr noundef nonnull align 8 dereferenceable(504) %0) #21
  resume { ptr, i32 } %47

48:                                               ; preds = %2
  ret void
}